(dp0
VLIFE
p1
F1.0
sVRATIO
p2
F6.0
sVSIMPLE
p3
F5.0
sVPREDICTION
p4
F-2.0
sVPACKET
p5
F5.0
sVENVIRONMENT
p6
F-1.0
sVGAIN
p7
F-1.0
sVDUAL
p8
F8.0
sVCLUMPING
p9
F1.0
sVGROWING
p10
F1.0
sVINDUCED
p11
F2.0
sVSPECTRAL
p12
F1.0
sVDETECT
p13
F1.0
sVTRANSCRIPTIONAL
p14
F2.0
sVADDITIONAL
p15
F1.0
sVPOWER
p16
F12.0
sVFOLDS
p17
F4.0
sVCROWN
p18
F1.0
sVIS A
p19
F-1.0
sVPERFORM
p20
F-2.0
sVCRITICAL
p21
F9.0
sVTRANSLATION
p22
F-2.0
sVEVALUATION
p23
F8.0
sVACCURACY
p24
F-2.0
sVBODY
p25
F-1.0
sVDOSE IMAGE
p26
F8.0
sVREFLECTANCE SPECTRUM
p27
F-2.0
sVFROST DAMAGE
p28
F1.0
sVPOSITRON
p29
F1.0
sVNATURE
p30
F1.0
sVDETECTORS
p31
F1.0
sVLARVAL DEVELOPMENT
p32
F-1.0
sVDILUTED
p33
F-2.0
sVSITES
p34
F2.0
sVSPECTRAL ANALYSIS
p35
F-2.0
sVAUDIO
p36
F-2.0
sVSIMILAR
p37
F2.0
sVWINTER
p38
F1.0
sVIMMUNOPHENOTYPE
p39
F2.0
sVMAR
p40
F1.0
sVPROCESS
p41
F-1.0
sVREVIEW
p42
F1.0
sVCOUPLED
p43
F1.0
sVWATER
p44
F-2.0
sVEXPERIMENT
p45
F-4.0
sVSNR
p46
F8.0
sVAUTHORS
p47
F-2.0
sVCOMPUTED TOMOGRAPHY
p48
F8.0
sVPROPERTY
p49
F-2.0
sVSIGNAL TO NOISE RATIO
p50
F6.0
sVESTABLISHED
p51
F2.0
sVMUTANT
p52
F2.0
sVENHANCED
p53
F-1.0
sVNORMAL
p54
F2.0
sVSIGNALS
p55
F12.0
sVRESOLVE
p56
F-1.0
sVUSER
p57
F5.0
sVHEPATIC
p58
F2.0
sVELECTRONICS
p59
F1.0
sVVOICE
p60
F4.0
sVPROBABILITY
p61
F1.0
sVLSO
p62
F1.0
sVINTERVAL
p63
F-2.0
sVINTERFERENCE
p64
F8.0
sVMODIFIED
p65
F1.0
sVHUMAN ADENOVIRUS TYPE 5
p66
F2.0
sVCHRONIC
p67
F5.0
sVUSE OF
p68
F-2.0
sVCOMMON
p69
F-1.0
sVSIMULATIONS
p70
F-1.0
sVCRATAEGUS DOUGLASII
p71
F-1.0
sVCREATED BY
p72
F-2.0
sVPRECISE
p73
F1.0
sVSEQUENCE
p74
F2.0
sVREFLECTANCE SPECTROSCOPY
p75
F-2.0
sVVISUALIZED
p76
F1.0
sVBITTER CHERRY
p77
F-1.0
sVRESULT
p78
F1.0
sVACTIVE
p79
F2.0
sVTECHNOLOGY
p80
F-2.0
sVGENERATE
p81
F-1.0
sVIMAGE FUSION
p82
F-1.0
sVFRUIT FLY
p83
F-1.0
sVCONTRAST
p84
F-1.0
sVFOURTH
p85
F8.0
sVWOODY
p86
F1.0
sVTO IDENTIFY
p87
F9.0
sVFRAME
p88
F8.0
sVDETAILS
p89
F-1.0
sVDOI
p90
F1.0
sVFEATURES
p91
F11.0
sVORF3
p92
F2.0
sVCOCHLEAE
p93
F-2.0
sVLARVAL
p94
F-1.0
sVSECOND
p95
F8.0
sVLIFE CYCLES
p96
F1.0
sVAPPLICATION
p97
F5.0
sVFUSION
p98
F5.0
sVCARRYING
p99
F2.0
sVIDENTIFY
p100
F9.0
sVDISPERSE
p101
F-1.0
sVRESPONSE TO ETOPOSIDE
p102
F2.0
sVANIMALS
p103
F-1.0
sVPLANTS
p104
F1.0
sVTRAINING
p105
F-2.0
sVTASK
p106
F8.0
sVMETHODS
p107
F9.0
sVPOINT
p108
F-2.0
sVDROP
p109
F-1.0
sVETOPOSIDE
p110
F2.0
sVDEHYDRATION
p111
F1.0
sVLOW DOSE
p112
F8.0
sVKNOWN
p113
F9.0
sVCANOPY
p114
F1.0
sVSIZE
p115
F1.0
sVHISTOLOGICAL
p116
F2.0
sVBODIES
p117
F2.0
sVSIGNAL
p118
F6.0
sVDIFFERENT
p119
F1.0
sVEFFICACY
p120
F5.0
sVPRESENCE
p121
F-1.0
sVSITE
p122
F4.0
sVVISUAL
p123
F-2.0
sVVARIOUS
p124
F2.0
sVEVEN
p125
F-1.0
sVUPPER
p126
F5.0
sVSMALLER
p127
F1.0
sVDATABASE
p128
F12.0
sVENERGIES
p129
F5.0
sVPOST-TRANSLATIONAL MODIFICATIONS
p130
F2.0
sVACTIVATED
p131
F2.0
sVEARLY
p132
F-1.0
sVWESTERN
p133
F-1.0
sVLOSE
p134
F1.0
sVFOUND IN
p135
F8.0
sVSLIGHTLY
p136
F-1.0
sVSTRUCTURE
p137
F1.0
sVADENOVIRUS TYPE
p138
F2.0
sVIN VIVO
p139
F-1.0
sVNOVEL
p140
F7.0
sVCONTROLLED
p141
F5.0
sVBEARS
p142
F-1.0
sVPATTERN
p143
F5.0
sVRETINA
p144
F-2.0
sV0.5
p145
F-2.0
sVFORESTS
p146
F1.0
sVBOUND
p147
F2.0
sVFORMS
p148
F2.0
sVSINGLE
p149
F-2.0
sVATLAS
p150
F-1.0
sVDATA
p151
F-1.0
sVCORRECT
p152
F-2.0
sVFEEDBACK
p153
F-2.0
sVREFLECTANCE
p154
F-2.0
sVPRUNUS
p155
F-1.0
sVREVIEW OF
p156
F1.0
sVSEMG
p157
F5.0
sVTOF
p158
F1.0
sVIMAGE
p159
F7.0
sVCREATED
p160
F-2.0
sVMODALITY
p161
F-1.0
sVCELL
p162
F6.0
sVPAPER
p163
F16.0
sVRECONSTRUCTION
p164
F-1.0
sVMOUSE
p165
F-1.0
sVSPECIES
p166
F1.0
sVP53
p167
F6.0
sVHEAD
p168
F1.0
sVINTERACTION
p169
F1.0
sVCOMPUTED
p170
F8.0
sVSLIGHT
p171
F1.0
sVSTUDY
p172
F3.0
sVFRUITS
p173
F1.0
sVPERIOD
p174
F1.0
sVUNSTRUCTURED
p175
F8.0
sVEXAMINED
p176
F9.0
sVFOUND
p177
F9.0
sVHAND
p178
F1.0
sVHIDDEN
p179
F-1.0
sVGE-68
p180
F1.0
sVTENSOR
p181
F8.0
sVFLIES
p182
F-1.0
sVCHARACTERISTIC
p183
F-1.0
sVMAKE
p184
F-4.0
sVOVERALL
p185
F2.0
sVCHOSEN
p186
F-1.0
sVCOMPLEXITY
p187
F8.0
sVPRODUCE
p188
F1.0
sVPERIODS
p189
F-1.0
sVTRAINED
p190
F8.0
sVLONG-TERM
p191
F8.0
sVDEVELOPMENTAL
p192
F-1.0
sVFUNCTIONS
p193
F-1.0
sVECOSYSTEM
p194
F-1.0
sVMCF7
p195
F4.0
sVPROGNOSIS
p196
F2.0
sVEMISSION TOMOGRAPHY
p197
F1.0
sVCOMBINE
p198
F-2.0
sVUSUALLY
p199
F-1.0
sVLINE
p200
F8.0
sVREADOUT
p201
F1.0
sVOPTIMIZE
p202
F1.0
sVPROCESSES
p203
F-1.0
sVOCCASIONAL
p204
F-1.0
sVFORECASTING
p205
F-2.0
sVPLATFORM
p206
F-2.0
sVMEASURED
p207
F1.0
sVTISSUES
p208
F1.0
sVLONG
p209
F8.0
sVSOURCE
p210
F11.0
sVABSENCE OF
p211
F2.0
sVCONDITIONS
p212
F2.0
sVINCREASED EXPRESSION
p213
F2.0
sVRAY
p214
F8.0
sVPROPOSED
p215
F4.0
sVDECISION TREE
p216
F12.0
sVCELLS
p217
F6.0
sVFREEZING
p218
F1.0
sVHIGH
p219
F15.0
sVHUMAN ADENOVIRUS
p220
F2.0
sVLPC
p221
F4.0
sVMATCHING
p222
F-2.0
sVDID
p223
F2.0
sVFAST
p224
F-1.0
sVRETAINED
p225
F-1.0
sVADDITION
p226
F-1.0
sVDECISION
p227
F12.0
sVDAMAGE
p228
F1.0
sVDETECTED
p229
F-1.0
sVADDRESS
p230
F8.0
sVINJURY
p231
F5.0
sVOCCUR
p232
F2.0
sVBASED
p233
F12.0
sVSIMILARITY
p234
F8.0
sVSETUP
p235
F1.0
sVREDUCE
p236
F-1.0
sVTRANSFORM
p237
F13.0
sVPML
p238
F2.0
sVPEAK
p239
F3.0
sVFOLLOWING
p240
F5.0
sVOFFLINE
p241
F1.0
sVFINAL
p242
F8.0
sVPOPULATION
p243
F2.0
sVBLIND
p244
F8.0
sVINTENTS
p245
F5.0
sVFAILED
p246
F8.0
sVORGANS
p247
F1.0
sVINCIDENCE
p248
F-2.0
sVWEIGHTING
p249
F-1.0
sVSUBJECTS
p250
F9.0
sVHAWTHORN FRUIT
p251
F-1.0
sVVALUES
p252
F1.0
sVSENSOR
p253
F-3.0
sVX-RAY
p254
F8.0
sVAPPLIED
p255
F5.0
sVNEUROLOGICAL INJURY
p256
F5.0
sVEND
p257
F1.0
sVTEMPERATURE
p258
F1.0
sVCLASSIFICATION
p259
F5.0
sVPHOTONS
p260
F1.0
sVWASHINGTON
p261
F-1.0
sVPOSSIBLE
p262
F0.0
sVRANGE
p263
F-2.0
sVNOISE
p264
F11.0
sVMAD2
p265
F4.0
sVE1B PROTEIN
p266
F2.0
sVAZIMUTH
p267
F-2.0
sVPINUS CEMBRA
p268
F1.0
sVPOST
p269
F2.0
sVADJUSTMENT
p270
F-1.0
sVFUNCTION
p271
F-1.0
sVMUSCLES
p272
F5.0
sVQUANTIFY
p273
F1.0
sVCOMPONENT
p274
F2.0
sVAGGREGATION
p275
F4.0
sVRISK OF
p276
F1.0
sVP21
p277
F4.0
sVTIME
p278
F-2.0
sVSENSORS
p279
F-2.0
sVEASE
p280
F1.0
sVCLOSE TO
p281
F5.0
sVSPRING
p282
F1.0
sVIMPROVEMENT
p283
F-1.0
sVTREATMENT
p284
F2.0
sVSMALL
p285
F0.0
sVECG
p286
F8.0
sVRMS
p287
F-2.0
sVMANAGEMENT
p288
F-1.0
sVAPOPTOTIC
p289
F4.0
sVLYSO
p290
F1.0
sVWORK
p291
F8.0
sVINFECTED
p292
F2.0
sVIMAGING
p293
F-1.0
sVMASS
p294
F2.0
sVCONFIGURATION
p295
F1.0
sVSHRINKING
p296
F4.0
sVPRESENT
p297
F0.0
sVHIGHER
p298
F8.0
sVMANAGE
p299
F-1.0
sVMODELS
p300
F1.0
sVPROTEOMICS
p301
F2.0
sVACCURATE
p302
F-2.0
sVMEDICAL DIAGNOSIS
p303
F8.0
sVPROJECTED
p304
F1.0
sVFREEZE
p305
F1.0
sVGTP
p306
F4.0
sVREPORTED
p307
F3.0
sVSEPARATION
p308
F8.0
sVCLOSE
p309
F5.0
sVSURVIVE
p310
F1.0
sVDIFFERENCE
p311
F8.0
sVMATCH
p312
F-2.0
sVPREVIOUS
p313
F1.0
sVMOLECULAR IMAGING
p314
F-1.0
sVFALSE
p315
F-2.0
sVAMPLIFIER
p316
F1.0
sVRATE
p317
F8.0
sVANALYZING
p318
F-2.0
sVKEY
p319
F1.0
sVHELA
p320
F4.0
sVSPEED
p321
F1.0
sVITS
p322
F12.0
sVA549
p323
F4.0
sVCLIMATE
p324
F1.0
sVADJUSTABLE
p325
F-1.0
sVFUSED
p326
F7.0
sVDEGREE
p327
F0.0
sVBASIS
p328
F-2.0
sVNUCLEAR
p329
F2.0
sVVOICES
p330
F4.0
sVWHOLE BODY
p331
F-1.0
sVDEPTH
p332
F1.0
sVNUMERICAL SIMULATIONS
p333
F-1.0
sVBLACK
p334
F-1.0
sVDURATION
p335
F1.0
sVDNA
p336
F2.0
sVPOSITRON EMISSION TOMOGRAPHY (PET)
p337
F1.0
sVIMPACT
p338
F-2.0
sVRECOVERY
p339
F5.0
sVEXPOSED
p340
F2.0
sVLOW
p341
F10.0
sVIRRADIATED
p342
F1.0
sVNUMBER OF
p343
F0.0
sVENVIRONMENTAL
p344
F1.0
sVCOMPONENTS
p345
F6.0
sVDISTRIBUTIONS
p346
F-1.0
sVAS A RESULT OF
p347
F1.0
sVIMAGING MODALITY
p348
F-1.0
sVPOOR
p349
F-1.0
sVCHARACTERIZATION
p350
F1.0
sVACTIVATION
p351
F4.0
sVLOCAL
p352
F-1.0
sVSPECTRUM
p353
F-2.0
sVDISPERSAL
p354
F-1.0
sVSURVIVORS
p355
F5.0
sVRHAGOLETIS INDIFFERENS
p356
F-1.0
sVCOMPARED
p357
F0.0
sVABSORBANCE
p358
F-2.0
sVFUSING
p359
F8.0
sVVINBLASTINE
p360
F4.0
sVRELATIVE POWER
p361
F4.0
sVZONE
p362
F1.0
sVGENES
p363
F2.0
sVTEST
p364
F-2.0
sVDETECTOR
p365
F1.0
sVE1B
p366
F2.0
sVBITTER
p367
F-1.0
sVPHOTON
p368
F1.0
sVEMISSION
p369
F1.0
sVCONSENSUS
p370
F2.0
sVTOMOGRAPHY
p371
F8.0
sVEXPOSURE TO RADIATION
p372
F8.0
sVBEST
p373
F1.0
sVMCF7 CELLS
p374
F4.0
sVEFFECTIVENESS
p375
F9.0
sVPEPTIDE
p376
F4.0
sVLARVAE
p377
F-1.0
sVNEURAL
p378
F5.0
sVADAPTION
p379
F1.0
sVBINDING
p380
F2.0
sVSTATISTICAL METHOD
p381
F8.0
sVSTABLE
p382
F-1.0
sVEXTRACTION
p383
F5.0
sVPINUS
p384
F2.0
sVPROTEIN
p385
F2.0
sVTIME-OF-FLIGHT
p386
F1.0
sVMETHOD
p387
F3.0
sVMOVEMENT
p388
F4.0
sVTHERMOGRAPHY
p389
F1.0
sVRISK
p390
F1.0
sVLEVEL
p391
F0.0
sVTUBULIN
p392
F4.0
sVIS SENSITIVE TO
p393
F-1.0
sVPROCESSING
p394
F9.0
sVBRIEF
p395
F1.0
sVAPPROXIMATE
p396
F8.0
sVRELATIVE
p397
F3.0
sVUPPER LIMB
p398
F5.0
sV125
p399
F1.0
sVMPPC
p400
F1.0
sVDEXTERITY
p401
F5.0
sVCOMPUTATIONAL
p402
F7.0
sVPARTIAL
p403
F-3.0
sVAPPROACH
p404
F4.0
sVREGION
p405
F-1.0
sVDECODING
p406
F5.0
sVPATTERNS
p407
F2.0
sVFREQUENCY
p408
F4.0
sVANALYTE
p409
F-2.0
sVTRANSLATIONAL
p410
F2.0
sVEXPERIMENTAL
p411
F1.0
sVWAVELET TRANSFORM
p412
F8.0
sVCAPTURE
p413
F-1.0
sVDEATH
p414
F4.0
sVCRT
p415
F1.0
sVVARIETY
p416
F-2.0
sVCOST
p417
F-1.0
sVINITIAL
p418
F8.0
sVMECHANISMS
p419
F1.0
sVLARGE
p420
F8.0
sVINCIDENT
p421
F-2.0
sVCOMPLEX
p422
F7.0
sVDESIGN
p423
F5.0
sVDYNAMICS
p424
F1.0
sVDIPTERA
p425
F-1.0
sVSEARCH
p426
F-1.0
sVLEAVES
p427
F1.0
sVLARGER
p428
F8.0
sVPIXEL
p429
F-1.0
sVENDED
p430
F-1.0
sVBANDWIDTH
p431
F4.0
sVSIMULTANEOUS
p432
F-1.0
sVBLT
p433
F-1.0
sVCARRY
p434
F2.0
sVADAPTIVE
p435
F-2.0
sVINCREASING
p436
F10.0
sVNUMEROUS
p437
F2.0
sVEXPERIMENTAL EVIDENCE
p438
F1.0
sVSPARSE
p439
F7.0
sVPOSITRON EMISSION
p440
F1.0
sVMULTIDIMENSIONAL
p441
F6.0
sVSURVIVAL
p442
F1.0
sVANGIOMYOLIPOMA
p443
F2.0
sVSTROKE
p444
F5.0
sVLIMB
p445
F5.0
sVMODELING
p446
F-2.0
sVFWHM
p447
F1.0
sVEXTRACELLULAR
p448
F1.0
sVALPINE
p449
F1.0
sVONSET
p450
F-2.0
sVJOINT
p451
F8.0
sVTYPE 5
p452
F2.0
sVSURFACE
p453
F5.0
sVHUMAN CELLS
p454
F2.0
sVDIVERSE
p455
F1.0
sVMOL
p456
F2.0
sVLINEAR
p457
F9.0
sVSYSTEMS
p458
F5.0
sVMULTI
p459
F-3.0
sVPET
p460
F1.0
sVILL
p461
F-1.0
sVGLOBAL
p462
F-1.0
sVCOMMERCIAL
p463
F1.0
sVSCOTS PINE
p464
F1.0
sVINFRARED
p465
F1.0
sVSENSITIVE
p466
F-1.0
sVHAMAMATSU
p467
F1.0
sVHIGH RESOLUTION
p468
F1.0
sVVISUAL FEEDBACK
p469
F-2.0
sVCRYSTALS
p470
F1.0
sVCOLLECTED
p471
F-2.0
sVFLIGHT
p472
F1.0
sVCUSTOM
p473
F1.0
sVABILITY
p474
F2.0
sVENHANCEMENT
p475
F-1.0
sVMATRICES
p476
F8.0
sVVARIABLES
p477
F8.0
sVCALIBRATION
p478
F-2.0
sVIDENTIFIED
p479
F2.0
sVRELATED
p480
F1.0
sVBETTER
p481
F1.0
sVCHERRY
p482
F-1.0
sVAPPLY
p483
F-1.0
sVEXPRESSION
p484
F2.0
sVDIFFUSE
p485
F-2.0
sVVIRAL
p486
F2.0
sVHAWTHORN
p487
F-1.0
sVTO REDUCE
p488
F-1.0
sVALGORITHM
p489
F10.0
sVPROVIDED
p490
F1.0
sV466
p491
F2.0
sVCOVER
p492
F1.0
sVNUMBER
p493
F0.0
sVOBSERVED
p494
F3.0
sVABSENCE
p495
F2.0
sVOPTIMAL
p496
F4.0
sVSOUND LOCALIZATION
p497
F-2.0
sVEVIDENCE
p498
F1.0
sVNEAREST
p499
F-2.0
sVMAJOR
p500
F-1.0
sVSEVERITY
p501
F1.0
sVNOT DETECTED
p502
F-1.0
sVRESULTS
p503
F8.0
sVTREES
p504
F0.0
sVSTRATEGY
p505
F-1.0
sVFOCUSED
p506
F8.0
sVCONDITION
p507
F5.0
sVSTATISTICAL
p508
F9.0
sVEXPOSED TO
p509
F2.0
sVTYPE
p510
F2.0
sVEVENT
p511
F-2.0
sVOVERCOME
p512
F-1.0
sVLOWER
p513
F11.0
sVELEMENTS
p514
F1.0
sVDIRECTLY
p515
F4.0
sVFINDINGS
p516
F1.0
sVACQUIRED
p517
F-1.0
sVANALYTES
p518
F-2.0
sVPREMATURE
p519
F1.0
sVDOSE
p520
F8.0
sVAPPLICATIONS
p521
F6.0
sVCROWNS
p522
F1.0
sVLEARN
p523
F-2.0
sVNEITHER
p524
F2.0
sVDENSITY
p525
F5.0
sVDIFFICULT
p526
F-1.0
sVCONTROL
p527
F5.0
sVABSENT
p528
F2.0
sVTERM
p529
F12.0
sVDICTIONARY
p530
F8.0
sVCALCULATION
p531
F1.0
sVOSCILLOSCOPE
p532
F1.0
sVPREAMPLIFIER
p533
F1.0
sVDEGRADATION
p534
F1.0
sVDIFFUSE REFLECTANCE SPECTRUM
p535
F-2.0
sVADENOVIRUS
p536
F2.0
sVFRUIT
p537
F-1.0
sVMINIMAL
p538
F1.0
sVPATHOLOGICAL
p539
F4.0
sVVECTORS
p540
F8.0
sVEFFECT
p541
F1.0
sV1-7
p542
F-2.0
sVALLOW
p543
F-2.0
sVWHITE
p544
F-2.0
sVSCATTERING
p545
F-2.0
sVPINK
p546
F-2.0
sVPLANT
p547
F1.0
sVTRANSFER
p548
F-1.0
sVFACILITATING
p549
F5.0
sVPINE
p550
F0.0
sVPOLYMERIZATION
p551
F4.0
sVINSTRUMENT
p552
F-2.0
sVINVESTIGATES
p553
F9.0
sVIMPROVING
p554
F-1.0
sVFLOWERS
p555
F1.0
sVCONTINUED
p556
F-1.0
sVRECOGNITION
p557
F11.0
sVSELECTED
p558
F5.0
sVCOINCIDENT
p559
F1.0
sVGDP BINDING
p560
F4.0
sVHEALTHY
p561
F4.0
sVPRESERVING
p562
F7.0
sVEIGHTY
p563
F2.0
sVROBOT
p564
F-2.0
sVDE-NOISING
p565
F8.0
sVSILICON
p566
F-1.0
sVINVESTIGATE
p567
F-2.0
sVHAVE
p568
F15.0
sVSPECTROMETER
p569
F-2.0
sVPROPER
p570
F1.0
sVCCA
p571
F8.0
sVORDER
p572
F11.0
sVEXPOSURE
p573
F8.0
sVELEVATION
p574
F1.0
sVSIGNAL TO NOISE
p575
F6.0
sVPINUS SYLVESTRIS
p576
F1.0
sVSWEET
p577
F-1.0
sVSHALLOW
p578
F1.0
sVPROPERTIES
p579
F-2.0
sVSPECIFIC
p580
F6.0
sVHUMAN
p581
F2.0
sVA MOUSE
p582
F-1.0
sVRHAGOLETIS
p583
F-1.0
sVEVENTS
p584
F-2.0
sVDIFFUSE REFLECTANCE SPECTROSCOPY
p585
F-2.0
sVPOSITRON EMISSION TOMOGRAPHY
p586
F1.0
sVHIGH DOSE
p587
F8.0
sVUTILIZATION
p588
F8.0
sVPROVIDE
p589
F-3.0
sVENVELOPE
p590
F4.0
sVFEATURE
p591
F5.0
sVPENALTY
p592
F-1.0
sVCRYSTAL
p593
F1.0
sVGROWTH
p594
F1.0
sVDIAGNOSIS
p595
F10.0
sVESCAPE
p596
F1.0
sVTAKEN
p597
F-2.0
sVREDUCED
p598
F1.0
sVHIGH SPEED
p599
F1.0
sVLIMITED
p600
F1.0
sVFEATURE EXTRACTION
p601
F5.0
sVALL SUBJECTS
p602
F5.0
sVORIGINAL
p603
F5.0
sVANNIHILATION
p604
F1.0
sVNEEDED
p605
F9.0
sVLENGTH
p606
F1.0
sVLEVELS
p607
F3.0
sVPONDEROSA PINE
p608
F-1.0
sVVARYING
p609
F-1.0
sVMODIFICATION
p610
F2.0
sVOUTPUT
p611
F0.0
sVALTERNATIVE
p612
F1.0
sVMAIN
p613
F8.0
sVFLY
p614
F-1.0
sVDOMAIN
p615
F8.0
sVX-RAY COMPUTED TOMOGRAPHY
p616
F8.0
sVLASER
p617
F-2.0
sVCOMBINED
p618
F4.0
sVTREE
p619
F25.0
sVSUPPORT
p620
F-1.0
sVCHOKE
p621
F-1.0
sVRECONSTRUCTION ALGORITHM
p622
F-1.0
sVTEPHRITIDAE
p623
F-1.0
sVINTRALIPID
p624
F-2.0
sVREPORT
p625
F5.0
sVBUBR1
p626
F4.0
sVPATTERN RECOGNITION
p627
F5.0
sVPOPULATIONS
p628
F2.0
sVBIOLUMINESCENCE
p629
F-1.0
sVRESEARCH
p630
F1.0
sVMOTION
p631
F-2.0
sVFUTURE
p632
F1.0
sVPERFORMED
p633
F5.0
sVSUGGEST
p634
F-1.0
sVWASHINGTON STATE
p635
F-1.0
sVIMAGE PROCESSING
p636
F8.0
sVSTAGE
p637
F-2.0
sVINFORMATION
p638
F15.0
sVMEDIUM
p639
F8.0
sVLOCALIZATION
p640
F-2.0
sVARTIFACTS
p641
F-1.0
sVEXCELLENT
p642
F1.0
sVFUNCTIONAL
p643
F5.0
sVCONTAINED
p644
F-1.0
sVERROR
p645
F-2.0
sVPERFORMANCE
p646
F1.0
sVTIMING
p647
F1.0
sVMOLECULAR
p648
F-1.0
sVRESPONSE
p649
F3.0
sVRESPONSE TO
p650
F3.0
sVDISTANCE
p651
F-2.0
sVPRECISION
p652
F-2.0
sVCLASSIFIER
p653
F5.0
sVCHRONIC STROKE
p654
F5.0
sVEXPOSURE TO
p655
F8.0
sVCHARACTERISTICS
p656
F-3.0
sVNEURAL CONTROL
p657
F5.0
sVQUALITY
p658
F8.0
sVREHABILITATION
p659
F5.0
sVSEASONAL
p660
F0.0
sVSOUND
p661
F-2.0
sVNUMERICAL
p662
F-1.0
sVAPPLE
p663
F-1.0
sVINTERACTIONS
p664
F1.0
sVEVALUATE
p665
F4.0
sVPOST-TRANSLATIONAL MODIFICATION
p666
F2.0
sVRADIATION
p667
F10.0
sVCROSS
p668
F8.0
sVPROVEN
p669
F5.0
sVKDA
p670
F2.0
sVCAPACITANCE
p671
F1.0
sVPROGRAM
p672
F2.0
sVMODEL
p673
F-2.0
sVAVOIDANCE
p674
F1.0
sVSTUDIES
p675
F2.0
sVCAUSES
p676
F4.0
sVPATHOLOGIES
p677
F4.0
sVCALCULATED
p678
F5.0
sVFROST
p679
F1.0
sVPERFORMED BY
p680
F5.0
sVNUMBERS
p681
F-1.0
sVSPECTROSCOPY
p682
F-2.0
sVINFRARED THERMOGRAPHY
p683
F1.0
sVINFESTATION
p684
F-1.0
sVSPECTROMETRY
p685
F2.0
sVSOLUTIONS
p686
F-2.0
sVFED
p687
F5.0
sVCRATAEGUS
p688
F-1.0
sVRAPIDLY
p689
F1.0
sVVOCAL
p690
F4.0
sVHIGHLY
p691
F-1.0
sVWIRELESS
p692
F1.0
sVVOCAL FOLDS
p693
F4.0
sVDIAGNOSED
p694
F4.0
sVRESPONSIVE
p695
F2.0
sVPROBLEM
p696
F5.0
sVGDP
p697
F4.0
sVHIGH-DENSITY
p698
F5.0
sVGREATER
p699
F1.0
sVREPRODUCTIVE
p700
F1.0
sVHOST
p701
F-1.0
sVSOLUTION
p702
F-3.0
sVANALYSIS
p703
F6.0
sVFUSED IMAGE
p704
F7.0
sVINTENSITY
p705
F0.0
sVOPTICAL
p706
F-2.0
sVUSING
p707
F-6.0
sVVEGETATIVE
p708
F1.0
sVESTIMATION
p709
F8.0
sVCORRELATION ANALYSIS
p710
F8.0
sVUSE
p711
F-2.0
sVPRUNUS AVIUM
p712
F-1.0
sVUSA
p713
F-1.0
sVMEDICAL
p714
F8.0
sVPRODUCTION
p715
F1.0
sVSTATE
p716
F-1.0
sVRESISTANCE
p717
F1.0
sVSYSTEM
p718
F-2.0
sVPAIR
p719
F-2.0
sVCOMPLETELY
p720
F8.0
sVHYPOTHESIS
p721
F-1.0
sVBACKGROUND
p722
F-2.0
sVNULL
p723
F2.0
sVCOEFFICIENTS
p724
F4.0
sVCANONICAL CORRELATION
p725
F8.0
sVFASTER
p726
F8.0
sVCONSTRAINT
p727
F-1.0
sVLOW RISK
p728
F1.0
sVDISTILLED WATER
p729
F-2.0
sVLASER SOURCE
p730
F-2.0
sVTEMPERATURES
p731
F1.0
sVRESOLUTION
p732
F2.0
sVOBTAINED
p733
F11.0
sVLEAST SQUARES
p734
F-2.0
sVRESULTING IN
p735
F1.0
sVSPACE
p736
F-1.0
sVSEASON
p737
F-1.0
sVNEUROLOGICAL
p738
F5.0
sVVALUE
p739
F4.0
sVTRADITIONAL
p740
F-2.0
sVPOTENTIAL
p741
F4.0
sVBINDING SITE
p742
F4.0
sVNEARLY
p743
F-1.0
sVMASS SPECTROMETRY
p744
F2.0
sVCORRELATION
p745
F8.0
sVMIXED
p746
F-2.0
sVTOLERANCE
p747
F1.0
sVBLACK HAWTHORN
p748
F-1.0
sVDEVELOPMENT
p749
F-1.0
sVINCREASED
p750
F0.0
sVCLUMPED
p751
F1.0
sVSELF
p752
F-1.0
sVSNOW
p753
F1.0
sVDEPENDENCY
p754
F1.0
sVPERIODIC
p755
F4.0
s.