(dp0
VDEVELOPMENTAL
p1
F-1.0
sVLIFE
p2
F1.0
sVGDP BINDING
p3
F2.0
sVECOSYSTEM
p4
F-1.0
sVCONTINUED
p5
F-1.0
sVEIGHTY
p6
F2.0
sVMCF7
p7
F2.0
sVTIME
p8
F-1.0
sVCONSENSUS
p9
F2.0
sVPROGNOSIS
p10
F2.0
sVHAVE
p11
F3.0
sVCLUMPING
p12
F1.0
sVPROPER
p13
F1.0
sVSLIGHTLY
p14
F-1.0
sVINDUCED
p15
F2.0
sVPEPTIDE
p16
F2.0
sVMCF7 CELLS
p17
F2.0
sVOCCASIONAL
p18
F-1.0
sVHUMAN ADENOVIRUS TYPE 5
p19
F2.0
sVELEVATION
p20
F1.0
sVLARVAE
p21
F-1.0
sVPINUS SYLVESTRIS
p22
F1.0
sVSWEET
p23
F-1.0
sVADAPTION
p24
F1.0
sVTISSUES
p25
F1.0
sVCROWN
p26
F1.0
sVADENOVIRUS
p27
F2.0
sVSPECIFIC
p28
F1.0
sVCRITICAL
p29
F1.0
sVHUMAN
p30
F2.0
sVPINUS
p31
F2.0
sVABSENCE OF
p32
F2.0
sVCONDITIONS
p33
F2.0
sVINCREASED EXPRESSION
p34
F2.0
sVMOVEMENT
p35
F-1.0
sVFLIES
p36
F-1.0
sVTHERMOGRAPHY
p37
F1.0
sVRISK
p38
F1.0
sVLEVEL
p39
F1.0
sVPROVIDE
p40
F-1.0
sVCELLS
p41
F4.0
sVLARVAL DEVELOPMENT
p42
F-1.0
sVFREEZING
p43
F1.0
sVBRIEF
p44
F1.0
sVHIGH
p45
F1.0
sVFRUIT
p46
F-1.0
sVGROWTH
p47
F1.0
sVPOLYMERIZATION
p48
F2.0
sVDIAGNOSIS
p49
F2.0
sVESCAPE
p50
F1.0
sVPARTIAL
p51
F-1.0
sVNATURE
p52
F2.0
sVSIMILAR
p53
F2.0
sVREDUCED
p54
F1.0
sVGREATER
p55
F1.0
sVENVIRONMENT
p56
F1.0
sVUSA
p57
F-1.0
sVRETAINED
p58
F-1.0
sVDISTRIBUTIONS
p59
F-1.0
sVREVIEW
p60
F1.0
sVTREE
p61
F1.0
sVDAMAGE
p62
F1.0
sVSPECIES
p63
F1.0
sVNEEDED
p64
F1.0
sVDETECTED
p65
F-1.0
sVFUTURE
p66
F1.0
sVPONDEROSA PINE
p67
F-1.0
sVTRANSLATIONAL
p68
F2.0
sVMODIFICATION
p69
F2.0
sVOCCUR
p70
F1.0
sVEXPERIMENTAL
p71
F1.0
sVDISPERSE
p72
F-1.0
sVFLY
p73
F-1.0
sVCAPTURE
p74
F-1.0
sVWINTER
p75
F1.0
sVDEATH
p76
F2.0
sVNORMAL
p77
F2.0
sVDISPERSAL
p78
F-1.0
sVVINBLASTINE
p79
F2.0
sVSUPPORT
p80
F-1.0
sVMECHANISMS
p81
F1.0
sVCHOKE
p82
F-1.0
sVTEPHRITIDAE
p83
F-1.0
sVGROWING
p84
F1.0
sVRATE
p85
F2.0
sVCOMPLEX
p86
F1.0
sVHELA
p87
F2.0
sVPEAK
p88
F-1.0
sVHEPATIC
p89
F2.0
sVREPORT
p90
F3.0
sVDYNAMICS
p91
F1.0
sVBUBR1
p92
F2.0
sVDIPTERA
p93
F-1.0
sVPOPULATION
p94
F2.0
sVCOMPARED
p95
F1.0
sVPROBABILITY
p96
F1.0
sVPATTERNS
p97
F2.0
sVORGANS
p98
F1.0
sVLEAVES
p99
F1.0
sVMODIFIED
p100
F2.0
sVRESEARCH
p101
F1.0
sVENDED
p102
F-1.0
sVPRODUCTION
p103
F1.0
sVCOMMON
p104
F-1.0
sVHAWTHORN FRUIT
p105
F-1.0
sVCARRY
p106
F2.0
sVWASHINGTON STATE
p107
F-1.0
sVINCREASING
p108
F1.0
sVNUMEROUS
p109
F2.0
sVCRATAEGUS DOUGLASII
p110
F-1.0
sVWESTERN
p111
F-1.0
sVANGIOMYOLIPOMA
p112
F2.0
sVEXPERIMENTAL EVIDENCE
p113
F1.0
sVKEY
p114
F1.0
sVHUMAN ADENOVIRUS
p115
F2.0
sVSEQUENCE
p116
F2.0
sVALLOW
p117
F0.0
sVSURVIVAL
p118
F1.0
sVMEASURED
p119
F2.0
sVWASHINGTON
p120
F-1.0
sVPOSSIBLE
p121
F1.0
sVLARVAL
p122
F-1.0
sVVISUALIZED
p123
F1.0
sVMAD2
p124
F2.0
sVRESULT
p125
F1.0
sVACTIVE
p126
F2.0
sVTRANSCRIPTIONAL
p127
F2.0
sVPOST
p128
F2.0
sVINCREASED
p129
F2.0
sVSHRINKING
p130
F2.0
sVEXTRACELLULAR
p131
F1.0
sVNUMBER
p132
F2.0
sVSIZE
p133
F1.0
sVPROVIDED
p134
F1.0
sVQUANTIFY
p135
F1.0
sVTYPE 5
p136
F2.0
sVBOUND
p137
F2.0
sVCROWNS
p138
F1.0
sVHUMAN CELLS
p139
F2.0
sVDIVERSE
p140
F1.0
sVFRUIT FLY
p141
F-1.0
sVP21
p142
F2.0
sVFRUITS
p143
F1.0
sVBITTER CHERRY
p144
F-1.0
sVA549
p145
F2.0
sVHYPOTHESIS
p146
F-1.0
sVUSUALLY
p147
F-1.0
sVCLOSE TO
p148
F2.0
sVSEASONAL
p149
F0.0
sVFROST
p150
F1.0
sVFEATURES
p151
F2.0
sVORF3
p152
F2.0
sVESTABLISHED
p153
F2.0
sVLEVELS
p154
F3.0
sVSPRING
p155
F1.0
sVRADIATION
p156
F1.0
sVCLIMATE
p157
F1.0
sVALPINE
p158
F1.0
sVINFRARED
p159
F1.0
sVLIFE CYCLES
p160
F1.0
sVMUTANT
p161
F2.0
sVFORESTS
p162
F1.0
sVHIGH RESOLUTION
p163
F1.0
sVPINUS CEMBRA
p164
F1.0
sVSMALL
p165
F1.0
sVDROP
p166
F-1.0
sVPOST-TRANSLATIONAL MODIFICATION
p167
F2.0
sVAVOIDANCE
p168
F1.0
sVSTUDIES
p169
F2.0
sVPOPULATIONS
p170
F2.0
sVCAUSES
p171
F2.0
sVPLANTS
p172
F1.0
sVMANAGEMENT
p173
F-1.0
sVAPPLE
p174
F-1.0
sVAPOPTOTIC
p175
F2.0
sVCHERRY
p176
F-1.0
sVWORK
p177
F2.0
sVIDENTIFIED
p178
F2.0
sVRELATED
p179
F1.0
sVRESPONSE
p180
F3.0
sVETOPOSIDE
p181
F2.0
sVDEHYDRATION
p182
F1.0
sVINFECTED
p183
F2.0
sVNUMBERS
p184
F-1.0
sVINFRARED THERMOGRAPHY
p185
F1.0
sVINFESTATION
p186
F-1.0
sVCANOPY
p187
F1.0
sVRESPONSE TO
p188
F3.0
sVEXPRESSION
p189
F2.0
sVPERIOD
p190
F1.0
sVPRESENT
p191
F2.0
sVSTUDY
p192
F3.0
sVVIRAL
p193
F2.0
sVDIFFERENT
p194
F1.0
sVHAWTHORN
p195
F-1.0
sVRAPIDLY
p196
F1.0
sVLOW RISK
p197
F1.0
sVMODELS
p198
F1.0
sVPROTEOMICS
p199
F2.0
sV466
p200
F2.0
sVCOVER
p201
F1.0
sVSITE
p202
F2.0
sVFREEZE
p203
F1.0
sVGTP
p204
F2.0
sVPML
p205
F2.0
sVABSENCE
p206
F2.0
sVPREMATURE
p207
F1.0
sVLIMITED
p208
F1.0
sVRESPONSIVE
p209
F2.0
sVSURVIVE
p210
F1.0
sVDEGREE
p211
F1.0
sVEVIDENCE
p212
F1.0
sVRHAGOLETIS
p213
F-1.0
sVPREVIOUS
p214
F2.0
sVGDP
p215
F2.0
sVLARGE
p216
F2.0
sVMAJOR
p217
F-1.0
sVSPECTROMETRY
p218
F2.0
sVSEVERITY
p219
F1.0
sVREPRODUCTIVE
p220
F1.0
sVPOST-TRANSLATIONAL MODIFICATIONS
p221
F2.0
sVNOT DETECTED
p222
F-1.0
sVHOST
p223
F-1.0
sVRESULTS
p224
F-1.0
sVTREES
p225
F0.0
sVEARLY
p226
F-1.0
sVINTENSITY
p227
F1.0
sVBODIES
p228
F2.0
sVSTATISTICAL
p229
F1.0
sVLOSE
p230
F1.0
sVEXPOSED TO
p231
F2.0
sVVEGETATIVE
p232
F1.0
sVHISTOLOGICAL
p233
F2.0
sVMAKE
p234
F-1.0
sVSTRUCTURE
p235
F1.0
sVADENOVIRUS TYPE
p236
F2.0
sVSCOTS PINE
p237
F1.0
sVPRUNUS AVIUM
p238
F-1.0
sVABILITY
p239
F2.0
sVFINDINGS
p240
F1.0
sVDID
p241
F2.0
sVNUCLEAR
p242
F2.0
sVPROJECTED
p243
F1.0
sVSTATE
p244
F-1.0
sVCLOSE
p245
F2.0
sVSITES
p246
F2.0
sVAGGREGATION
p247
F2.0
sVRESPONSE TO ETOPOSIDE
p248
F2.0
sVCRATAEGUS
p249
F-1.0
sVBLACK
p250
F-1.0
sVLOW
p251
F1.0
sVDIRECTLY
p252
F2.0
sVLOWER
p253
F2.0
sVDURATION
p254
F1.0
sVDNA
p255
F2.0
sVNEITHER
p256
F2.0
sVNULL
p257
F2.0
sVRESISTANCE
p258
F1.0
sVFROST DAMAGE
p259
F1.0
sVABSENT
p260
F2.0
sVPRESENCE
p261
F-1.0
sVPRUNUS
p262
F-1.0
sVIMMUNOPHENOTYPE
p263
F2.0
sVEXPOSED
p264
F2.0
sVCALCULATION
p265
F1.0
sVDATA
p266
F1.0
sVNUMBER OF
p267
F2.0
sVCELL
p268
F4.0
sVENVIRONMENTAL
p269
F1.0
sVFORMS
p270
F2.0
sVRISK OF
p271
F1.0
sVPERIODS
p272
F-1.0
sVTEMPERATURES
p273
F1.0
sVPROGRAM
p274
F2.0
sVACTIVATED
p275
F2.0
sVDIFFICULT
p276
F-1.0
sVRESOLUTION
p277
F1.0
sVAS A RESULT OF
p278
F1.0
sVUSE
p279
F-1.0
sVP53
p280
F4.0
sVRESULTING IN
p281
F1.0
sVCHARACTERIZATION
p282
F1.0
sVCARRYING
p283
F2.0
sVSEASON
p284
F-1.0
sVACTIVATION
p285
F2.0
sVMOL
p286
F2.0
sVEFFECT
p287
F1.0
sVE1B PROTEIN
p288
F2.0
sVBINDING
p289
F2.0
sVRHAGOLETIS INDIFFERENS
p290
F-1.0
sVEXAMINED
p291
F1.0
sVBINDING SITE
p292
F2.0
sVTREATMENT
p293
F2.0
sVMASS SPECTROMETRY
p294
F2.0
sVWOODY
p295
F1.0
sVTUBULIN
p296
F2.0
sVFOUND
p297
F1.0
sVTOLERANCE
p298
F1.0
sVBLACK HAWTHORN
p299
F-1.0
sVRELATIVE
p300
F-1.0
sVDEVELOPMENT
p301
F-1.0
sVOBSERVED
p302
F2.0
sVPLANT
p303
F1.0
sVFLOWERS
p304
F1.0
sVREVIEW OF
p305
F1.0
sVZONE
p306
F1.0
sVREPORTED
p307
F2.0
sVCLUMPED
p308
F1.0
sVSELF
p309
F1.0
sVGENES
p310
F2.0
sVOVERALL
p311
F2.0
sVSNOW
p312
F1.0
sVPINE
p313
F0.0
sVPROTEIN
p314
F2.0
sVDEPENDENCY
p315
F1.0
sVKDA
p316
F2.0
sVMASS
p317
F2.0
sVTYPE
p318
F2.0
sVE1B
p319
F2.0
sVBITTER
p320
F-1.0
sVRECOGNITION
p321
F2.0
s.